target datalayout = "e-m:e-p270:32:32-p271:32:32-p272:64:64-i64:64-i128:128-f80:128-n8:16:32:64-S128"
target triple = "x86_64-pc-linux-gnu"

@_ZL8__viewer = internal global ptr null, align 8
@_ZL8scroll_x = internal global double 0.000000e+00, align 8
@_ZL8scroll_y = internal global double 0.000000e+00, align 8

; Function Attrs: mustprogress uwtable
define internal void @_ZL17glfw_mouse_scrollP10GLFWwindowdd(ptr noundef %0, double noundef %1, double noundef %2) #3 {
  %4 = alloca ptr, align 8
  %5 = alloca double, align 8
  %6 = alloca double, align 8
  store ptr %0, ptr %4, align 8, !tbaa !131
  store double %1, ptr %5, align 8, !tbaa !69
  store double %2, ptr %6, align 8, !tbaa !69
  %7 = load double, ptr %5, align 8, !tbaa !69
  %8 = load double, ptr @_ZL8scroll_x, align 8, !tbaa !69
  %9 = fadd double %8, %7
  store double %9, ptr @_ZL8scroll_x, align 8, !tbaa !69
  %10 = load double, ptr %6, align 8, !tbaa !69
  %11 = load double, ptr @_ZL8scroll_y, align 8, !tbaa !69
  %12 = fadd double %11, %10
  store double %12, ptr @_ZL8scroll_y, align 8, !tbaa !69
  %13 = load ptr, ptr @_ZL8__viewer, align 8, !tbaa !15
  %14 = load double, ptr %6, align 8, !tbaa !69
  %15 = fptrunc double %14 to float
  %16 = call noundef zeroext i1 @_ZN3igl6opengl4glfw6Viewer12mouse_scrollEf(ptr noundef nonnull align 16 dereferenceable(616) %13, float noundef %15)
  ret void
}