; Function Attrs: mustprogress uwtable
define internal void @_ZL17glfw_mouse_scrollP10GLFWwindowdd(ptr readnone captures(none) %0, double noundef %1, double noundef %2) #0 {
  %4 = load double, ptr @_ZL8scroll_x, align 8, !tbaa !68
  %5 = fadd double %1, %4
  store double %5, ptr @_ZL8scroll_x, align 8, !tbaa !68
  %6 = load double, ptr @_ZL8scroll_y, align 8, !tbaa !68
  %7 = fadd double %2, %6
  store double %7, ptr @_ZL8scroll_y, align 8, !tbaa !68
  %8 = load ptr, ptr @_ZL8__viewer, align 8, !tbaa !66
  %9 = fptrunc double %2 to float
  %10 = tail call noundef zeroext i1 @_ZN3igl6opengl4glfw6Viewer12mouse_scrollEf(ptr noundef nonnull align 16 dereferenceable(616) %8, float noundef %9)
  ret void
}